target datalayout = "e-m:e-p270:32:32-p271:32:32-p272:64:64-i64:64-i128:128-f80:128-n8:16:32:64-S128"
target triple = "x86_64-pc-linux-gnu"

@.str.360 = private unnamed_addr constant [46 x i8] c"../cpython/Modules/_testlimitedcapi/unicode.c\00", align 1
@.str.367 = private unnamed_addr constant [17 x i8] c"PyErr_Occurred()\00", align 1
@.str.368 = private unnamed_addr constant [18 x i8] c"!PyErr_Occurred()\00", align 1
@.str.391 = private unnamed_addr constant [6 x i8] c"OOnni\00", align 1
@__PRETTY_FUNCTION__.unicode_find = private unnamed_addr constant [47 x i8] c"PyObject *unicode_find(PyObject *, PyObject *)\00", align 1

; Function Attrs: nounwind uwtable
define internal ptr @unicode_find(ptr noundef %0, ptr noundef %1) #0 {
  %3 = alloca ptr, align 8
  %4 = alloca ptr, align 8
  %5 = alloca ptr, align 8
  %6 = alloca ptr, align 8
  %7 = alloca ptr, align 8
  %8 = alloca i64, align 8
  %9 = alloca i64, align 8
  %10 = alloca i32, align 4
  %11 = alloca i64, align 8
  %12 = alloca i32, align 4
  store ptr %0, ptr %4, align 8, !tbaa !3
  store ptr %1, ptr %5, align 8, !tbaa !3
  call void @llvm.lifetime.start.p0(i64 8, ptr %6) #7
  call void @llvm.lifetime.start.p0(i64 8, ptr %7) #7
  call void @llvm.lifetime.start.p0(i64 8, ptr %8) #7
  call void @llvm.lifetime.start.p0(i64 8, ptr %9) #7
  call void @llvm.lifetime.start.p0(i64 4, ptr %10) #7
  call void @llvm.lifetime.start.p0(i64 8, ptr %11) #7
  %13 = load ptr, ptr %5, align 8, !tbaa !3
  %14 = call i32 (ptr, ptr, ...) @PyArg_ParseTuple(ptr noundef %13, ptr noundef @.str.391, ptr noundef %6, ptr noundef %7, ptr noundef %8, ptr noundef %9, ptr noundef %10)
  %15 = icmp ne i32 %14, 0
  br i1 %15, label %17, label %16

16:                                               ; preds = %2
  store ptr null, ptr %3, align 8
  store i32 1, ptr %12, align 4
  br label %58

17:                                               ; preds = %2
  br label %18

18:                                               ; preds = %17
  %19 = load ptr, ptr %6, align 8, !tbaa !3
  %20 = call ptr @Py_GetConstantBorrowed(i32 noundef 0)
  %21 = icmp eq ptr %19, %20
  br i1 %21, label %22, label %23

22:                                               ; preds = %18
  store ptr null, ptr %6, align 8, !tbaa !3
  br label %23

23:                                               ; preds = %22, %18
  br label %24

24:                                               ; preds = %23
  br label %25

25:                                               ; preds = %24
  br label %26

26:                                               ; preds = %25
  %27 = load ptr, ptr %7, align 8, !tbaa !3
  %28 = call ptr @Py_GetConstantBorrowed(i32 noundef 0)
  %29 = icmp eq ptr %27, %28
  br i1 %29, label %30, label %31

30:                                               ; preds = %26
  store ptr null, ptr %7, align 8, !tbaa !3
  br label %31

31:                                               ; preds = %30, %26
  br label %32

32:                                               ; preds = %31
  br label %33

33:                                               ; preds = %32
  %34 = load ptr, ptr %6, align 8, !tbaa !3
  %35 = load ptr, ptr %7, align 8, !tbaa !3
  %36 = load i64, ptr %8, align 8, !tbaa !12
  %37 = load i64, ptr %9, align 8, !tbaa !12
  %38 = load i32, ptr %10, align 4, !tbaa !10
  %39 = call i64 @PyUnicode_Find(ptr noundef %34, ptr noundef %35, i64 noundef %36, i64 noundef %37, i32 noundef %38)
  store i64 %39, ptr %11, align 8, !tbaa !12
  %40 = load i64, ptr %11, align 8, !tbaa !12
  %41 = icmp eq i64 %40, -2
  br i1 %41, label %42, label %49

42:                                               ; preds = %33
  %43 = call ptr @PyErr_Occurred()
  %44 = icmp ne ptr %43, null
  br i1 %44, label %45, label %46

45:                                               ; preds = %42
  br label %48

46:                                               ; preds = %42
  call void @__assert_fail(ptr noundef @.str.367, ptr noundef @.str.360, i32 noundef 1191, ptr noundef @__PRETTY_FUNCTION__.unicode_find) #8
  unreachable

47:                                               ; No predecessors!
  br label %48

48:                                               ; preds = %47, %45
  store ptr null, ptr %3, align 8
  store i32 1, ptr %12, align 4
  br label %58

49:                                               ; preds = %33
  %50 = call ptr @PyErr_Occurred()
  %51 = icmp ne ptr %50, null
  br i1 %51, label %53, label %52

52:                                               ; preds = %49
  br label %55

53:                                               ; preds = %49
  call void @__assert_fail(ptr noundef @.str.368, ptr noundef @.str.360, i32 noundef 1194, ptr noundef @__PRETTY_FUNCTION__.unicode_find) #8
  unreachable

54:                                               ; No predecessors!
  br label %55

55:                                               ; preds = %54, %52
  %56 = load i64, ptr %11, align 8, !tbaa !12
  %57 = call ptr @PyLong_FromSsize_t(i64 noundef %56)
  store ptr %57, ptr %3, align 8
  store i32 1, ptr %12, align 4
  br label %58

58:                                               ; preds = %55, %48, %16
  call void @llvm.lifetime.end.p0(i64 8, ptr %11) #7
  call void @llvm.lifetime.end.p0(i64 4, ptr %10) #7
  call void @llvm.lifetime.end.p0(i64 8, ptr %9) #7
  call void @llvm.lifetime.end.p0(i64 8, ptr %8) #7
  call void @llvm.lifetime.end.p0(i64 8, ptr %7) #7
  call void @llvm.lifetime.end.p0(i64 8, ptr %6) #7
  %59 = load ptr, ptr %3, align 8
  ret ptr %59
}